target datalayout = "e-m:e-p270:32:32-p271:32:32-p272:64:64-i64:64-i128:128-f80:128-n8:16:32:64-S128"
target triple = "x86_64-pc-linux-gnu"

%struct._generic_SUNLinearSolver = type { ptr, ptr, ptr }
%struct._SUNLinearSolverContent_SPGMR = type { i32, i32, i32, i32, i32, i32, double, i32, ptr, ptr, ptr, ptr, ptr, ptr, ptr, ptr, ptr, ptr, ptr, ptr, ptr, ptr, ptr }

; Function Attrs: nounwind uwtable
define i32 @SUNLinSolSetPreconditioner_SPGMR(ptr noundef %0, ptr noundef %1, ptr noundef %2, ptr noundef %3) #0 {
  %5 = alloca ptr, align 8
  %6 = alloca ptr, align 8
  %7 = alloca ptr, align 8
  %8 = alloca ptr, align 8
  store ptr %0, ptr %5, align 8, !tbaa !12
  store ptr %1, ptr %6, align 8, !tbaa !64
  store ptr %2, ptr %7, align 8, !tbaa !64
  store ptr %3, ptr %8, align 8, !tbaa !64
  %9 = load ptr, ptr %7, align 8, !tbaa !64
  %10 = load ptr, ptr %5, align 8, !tbaa !12
  %11 = getelementptr inbounds nuw %struct._generic_SUNLinearSolver, ptr %10, i32 0, i32 0
  %12 = load ptr, ptr %11, align 8, !tbaa !35
  %13 = getelementptr inbounds nuw %struct._SUNLinearSolverContent_SPGMR, ptr %12, i32 0, i32 10
  store ptr %9, ptr %13, align 8, !tbaa !55
  %14 = load ptr, ptr %8, align 8, !tbaa !64
  %15 = load ptr, ptr %5, align 8, !tbaa !12
  %16 = getelementptr inbounds nuw %struct._generic_SUNLinearSolver, ptr %15, i32 0, i32 0
  %17 = load ptr, ptr %16, align 8, !tbaa !35
  %18 = getelementptr inbounds nuw %struct._SUNLinearSolverContent_SPGMR, ptr %17, i32 0, i32 11
  store ptr %14, ptr %18, align 8, !tbaa !56
  %19 = load ptr, ptr %6, align 8, !tbaa !64
  %20 = load ptr, ptr %5, align 8, !tbaa !12
  %21 = getelementptr inbounds nuw %struct._generic_SUNLinearSolver, ptr %20, i32 0, i32 0
  %22 = load ptr, ptr %21, align 8, !tbaa !35
  %23 = getelementptr inbounds nuw %struct._SUNLinearSolverContent_SPGMR, ptr %22, i32 0, i32 12
  store ptr %19, ptr %23, align 8, !tbaa !57
  ret i32 0
}